; Function Attrs: mustprogress uwtable
define void @_ZN6casadi16CallbackInternalC2ERKNSt7__cxx1112basic_stringIcSt11char_traitsIcESaIcEEEPNS_8CallbackE(ptr noundef nonnull align 8 dereferenceable(1369) %0, ptr noundef nonnull align 8 dereferenceable(32) %1, ptr noundef %2) unnamed_addr #3 align 2 {
  tail call void @_ZN6casadi16FunctionInternalC2ERKNSt7__cxx1112basic_stringIcSt11char_traitsIcESaIcEEE(ptr noundef nonnull align 8 dereferenceable(1312) %0, ptr noundef nonnull align 8 dereferenceable(32) %1)
  store ptr getelementptr inbounds nuw inrange(-16, 928) (i8, ptr @_ZTVN6casadi16CallbackInternalE, i64 16), ptr %0, align 8, !tbaa !3
  %4 = getelementptr inbounds nuw i8, ptr %0, i64 1312
  store ptr %2, ptr %4, align 8, !tbaa !6
  %5 = getelementptr inbounds nuw i8, ptr %0, i64 1320
  tail call void @llvm.memset.p0.i64(ptr noundef nonnull align 8 dereferenceable(49) %5, i8 0, i64 49, i1 false)
  ret void
}